(S'd41d8cd98f00b204e9800998ecf8427e'
p0
ccopy_reg
_reconstructor
p1
(copenfisca_core.parameters
Node
p2
c__builtin__
object
p3
Ntp4
Rp5
(dp6
S'name'
p7
S''
p8
sS'children'
p9
(dp10
S'benefits'
p11
g1
(g2
g3
Ntp12
Rp13
(dp14
g7
g11
sg9
(dp15
S'basic_income'
p16
g1
(copenfisca_core.parameters
Parameter
p17
g3
Ntp18
Rp19
(dp20
S'values_list'
p21
(lp22
g1
(copenfisca_core.parameters
ValueAtInstant
p23
g3
Ntp24
Rp25
(dp26
S'instant_str'
p27
V2015-12-01
p28
sg7
S'benefits.basic_income'
p29
sS'value'
p30
F600.0
sbasS'description'
p31
S'Amount of the basic income'
p32
sg7
g29
sbsS'housing_allowance'
p33
g1
(g17
g3
Ntp34
Rp35
(dp36
g21
(lp37
g1
(g23
g3
Ntp38
Rp39
(dp40
g27
V2016-12-01
p41
sg7
S'benefits.housing_allowance'
p42
sg30
Nsbag1
(g23
g3
Ntp43
Rp44
(dp45
g27
V2010-01-01
p46
sg7
g42
sg30
F0.25
sbasg31
S'Housing allowance amount (as a fraction of the rent)'
p47
sg7
g42
sbssbsS'taxes'
p48
g1
(g2
g3
Ntp49
Rp50
(dp51
g7
g48
sg9
(dp52
S'social_security_contribution'
p53
g1
(copenfisca_core.parameters
Scale
p54
g3
Ntp55
Rp56
(dp57
S'brackets'
p58
(lp59
g1
(copenfisca_core.parameters
Bracket
p60
g3
Ntp61
Rp62
(dp63
S'threshold'
p64
g1
(copenfisca_core.parameters
ValuesHistory
p65
g3
Ntp66
Rp67
(dp68
g21
(lp69
g1
(g23
g3
Ntp70
Rp71
(dp72
g27
V2013-01-01
p73
sg7
S'0.threshold'
p74
sg30
F0.0
sbasg7
g74
sbsS'rate'
p75
g1
(g65
g3
Ntp76
Rp77
(dp78
g21
(lp79
g1
(g23
g3
Ntp80
Rp81
(dp82
g27
V2017-01-01
p83
sg7
S'0.rate'
p84
sg30
F0.02
sbag1
(g23
g3
Ntp85
Rp86
(dp87
g27
V2015-01-01
p88
sg7
g84
sg30
F0.04
sbag1
(g23
g3
Ntp89
Rp90
(dp91
g27
V2013-01-01
p92
sg7
g84
sg30
F0.03
sbasg7
g84
sbsg7
S'0'
p93
sbag1
(g60
g3
Ntp94
Rp95
(dp96
g64
g1
(g65
g3
Ntp97
Rp98
(dp99
g21
(lp100
g1
(g23
g3
Ntp101
Rp102
(dp103
g27
V2017-01-01
p104
sg7
S'1.threshold'
p105
sg30
F6000.0
sbag1
(g23
g3
Ntp106
Rp107
(dp108
g27
V2016-01-01
p109
sg7
g105
sg30
F12300.0
sbag1
(g23
g3
Ntp110
Rp111
(dp112
g27
V2015-01-01
p113
sg7
g105
sg30
F12200.0
sbag1
(g23
g3
Ntp114
Rp115
(dp116
g27
V2014-01-01
p117
sg7
g105
sg30
F12100.0
sbag1
(g23
g3
Ntp118
Rp119
(dp120
g27
V2013-01-01
p121
sg7
g105
sg30
F12000.0
sbasg7
g105
sbsg75
g1
(g65
g3
Ntp122
Rp123
(dp124
g21
(lp125
g1
(g23
g3
Ntp126
Rp127
(dp128
g27
V2017-01-01
p129
sg7
S'1.rate'
p130
sg30
F0.06
sbag1
(g23
g3
Ntp131
Rp132
(dp133
g27
V2015-01-01
p134
sg7
g130
sg30
F0.12
sbag1
(g23
g3
Ntp135
Rp136
(dp137
g27
V2013-01-01
p138
sg7
g130
sg30
F0.1
sbasg7
g130
sbsg7
S'1'
p139
sbag1
(g60
g3
Ntp140
Rp141
(dp142
g64
g1
(g65
g3
Ntp143
Rp144
(dp145
g21
(lp146
g1
(g23
g3
Ntp147
Rp148
(dp149
g27
V2017-01-01
p150
sg7
S'2.threshold'
p151
sg30
F12400.0
sbasg7
g151
sbsg75
g1
(g65
g3
Ntp152
Rp153
(dp154
g21
(lp155
g1
(g23
g3
Ntp156
Rp157
(dp158
g27
V2017-01-01
p159
sg7
S'2.rate'
p160
sg30
F0.12
sbasg7
g160
sbsg7
S'2'
p161
sbasg7
S'taxes.social_security_contribution'
p162
sg31
S'Social security contribution tax scale'
p163
sbsS'income_tax_rate'
p164
g1
(g17
g3
Ntp165
Rp166
(dp167
g21
(lp168
g1
(g23
g3
Ntp169
Rp170
(dp171
g27
V2015-01-01
p172
sg7
S'taxes.income_tax_rate'
p173
sg30
F0.15
sbag1
(g23
g3
Ntp174
Rp175
(dp176
g27
V2014-01-01
p177
sg7
g173
sg30
F0.14
sbag1
(g23
g3
Ntp178
Rp179
(dp180
g27
V2013-01-01
p181
sg7
g173
sg30
F0.13
sbag1
(g23
g3
Ntp182
Rp183
(dp184
g27
V2012-01-01
p185
sg7
g173
sg30
F0.16
sbasg31
S'Income tax rate'
p186
sg7
g173
sbssbsS'general'
p187
g1
(g2
g3
Ntp188
Rp189
(dp190
g7
g187
sg9
(dp191
S'age_of_majority'
p192
g1
(g17
g3
Ntp193
Rp194
(dp195
g21
(lp196
g1
(g23
g3
Ntp197
Rp198
(dp199
g27
V1971-01-01
p200
sg7
S'general.age_of_majority'
p201
sg30
F18.0
sbag1
(g23
g3
Ntp202
Rp203
(dp204
g27
V1945-01-01
p205
sg7
g201
sg30
F21.0
sbasg31
S'Age of majority (in years)'
p206
sg7
g201
sbssbssbtp207
.